; Function Attrs: mustprogress nounwind uwtable
define dso_local range(i64 0, 4294967300) i64 @_ZN4Luau9parseModeERKSt6vectorINS_10HotCommentESaIS1_EE(ptr noundef nonnull readonly align 8 captures(none) dereferenceable(24) %0) local_unnamed_addr #4 personality ptr @__gxx_personality_v0 {
  %2 = load ptr, ptr %0, align 8, !tbaa !19
  %3 = getelementptr inbounds nuw i8, ptr %0, i64 8
  %4 = load ptr, ptr %3, align 8, !tbaa !19
  %.not25 = icmp eq ptr %2, %4
  br i1 %.not25, label %._crit_edge, label %.lr.ph

.lr.ph:                                           ; preds = %1, %17
  %.sroa.010.026 = phi ptr [ %18, %17 ], [ %2, %1 ]
  %5 = load i8, ptr %.sroa.010.026, align 8, !tbaa !21, !range !30, !noundef !31
  %6 = trunc nuw i8 %5 to i1
  br i1 %6, label %7, label %17

7:                                                ; preds = %.lr.ph
  %8 = getelementptr inbounds nuw i8, ptr %.sroa.010.026, i64 24
  %9 = tail call noundef i32 @_ZNKSt7__cxx1112basic_stringIcSt11char_traitsIcESaIcEE7compareEPKc(ptr noundef nonnull align 8 dereferenceable(32) %8, ptr noundef nonnull @.str.101) #31
  %10 = icmp eq i32 %9, 0
  br i1 %10, label %._crit_edge.loopexit, label %11

11:                                               ; preds = %7
  %12 = tail call noundef i32 @_ZNKSt7__cxx1112basic_stringIcSt11char_traitsIcESaIcEE7compareEPKc(ptr noundef nonnull align 8 dereferenceable(32) %8, ptr noundef nonnull @.str.102) #31
  %13 = icmp eq i32 %12, 0
  br i1 %13, label %._crit_edge.loopexit, label %14

14:                                               ; preds = %11
  %15 = tail call noundef i32 @_ZNKSt7__cxx1112basic_stringIcSt11char_traitsIcESaIcEE7compareEPKc(ptr noundef nonnull align 8 dereferenceable(32) %8, ptr noundef nonnull @.str.103) #31
  %16 = icmp eq i32 %15, 0
  br i1 %16, label %._crit_edge.loopexit, label %17

17:                                               ; preds = %.lr.ph, %14
  %18 = getelementptr inbounds nuw i8, ptr %.sroa.010.026, i64 56
  %.not = icmp eq ptr %18, %4
  br i1 %.not, label %._crit_edge.loopexit, label %.lr.ph

._crit_edge.loopexit:                             ; preds = %11, %7, %14, %17
  %.sroa.013.123.ph = phi i64 [ 0, %17 ], [ 2, %14 ], [ 0, %7 ], [ 1, %11 ]
  %.sroa.4.3.ph = phi i64 [ 0, %17 ], [ 4294967296, %14 ], [ 4294967296, %7 ], [ 4294967296, %11 ]
  %19 = or disjoint i64 %.sroa.4.3.ph, %.sroa.013.123.ph
  br label %._crit_edge

._crit_edge:                                      ; preds = %._crit_edge.loopexit, %1
  %.sroa.013.0.insert.insert = phi i64 [ 0, %1 ], [ %19, %._crit_edge.loopexit ]
  ret i64 %.sroa.013.0.insert.insert
}